; Function Attrs: nounwind uwtable
define dso_local void @Py_PreInitializeFromArgs(ptr dead_on_unwind noalias writable writeonly sret(%struct.PyStatus) align 8 captures(none) initializes((0, 32)) %0, ptr noundef %1, i64 noundef %2, ptr noundef %3) local_unnamed_addr #1 {
  %5 = alloca %struct._PyArgv, align 8
  call void @llvm.lifetime.start.p0(i64 32, ptr nonnull %5) #23
  store i64 %2, ptr %5, align 8, !tbaa !196
  %6 = getelementptr inbounds nuw i8, ptr %5, i64 8
  %7 = getelementptr inbounds nuw i8, ptr %5, i64 24
  call void @llvm.memset.p0.i64(ptr noundef nonnull align 8 dereferenceable(16) %6, i8 0, i64 16, i1 false)
  store ptr %3, ptr %7, align 8, !tbaa !201
  call void @_Py_PreInitializeFromPyArgv(ptr dead_on_unwind writable sret(%struct.PyStatus) align 8 %0, ptr noundef %1, ptr noundef nonnull %5)
  call void @llvm.lifetime.end.p0(i64 32, ptr nonnull %5) #23
  ret void
}